; Function Attrs: mustprogress uwtable
define hidden void @_ZN4ncnn34lstm_transform_weight_int8_avxvnniERKNS_3MatES2_S2_S2_S2_RS0_S3_S3_iiiiRKNS_6OptionE(ptr noundef nonnull align 8 dereferenceable(72) %0, ptr noundef nonnull align 8 dereferenceable(72) %1, ptr noundef nonnull align 8 dereferenceable(72) %2, ptr noundef nonnull align 8 dereferenceable(72) %3, ptr noundef nonnull align 8 dereferenceable(72) %4, ptr noundef nonnull align 8 dereferenceable(72) %5, ptr noundef nonnull align 8 dereferenceable(72) %6, ptr noundef nonnull align 8 dereferenceable(72) %7, i32 noundef %8, i32 noundef %9, i32 noundef %10, i32 noundef %11, ptr noundef nonnull readonly align 8 captures(none) dereferenceable(64) %12) local_unnamed_addr #0 {
  %14 = alloca i32, align 4
  %15 = alloca i32, align 4
  %16 = alloca i32, align 4
  %17 = alloca i32, align 4
  call void @llvm.lifetime.start.p0(i64 4, ptr nonnull %14)
  call void @llvm.lifetime.start.p0(i64 4, ptr nonnull %15)
  call void @llvm.lifetime.start.p0(i64 4, ptr nonnull %16)
  call void @llvm.lifetime.start.p0(i64 4, ptr nonnull %17)
  %18 = tail call i32 @__kmpc_global_thread_num(ptr nonnull @2)
  store i32 %8, ptr %14, align 4, !tbaa !4
  store i32 %9, ptr %15, align 4, !tbaa !4
  store i32 %10, ptr %16, align 4, !tbaa !4
  store i32 %11, ptr %17, align 4, !tbaa !4
  %19 = add i32 %8, 8
  %20 = add i32 %19, %9
  %.neg.i = sdiv i32 %11, -2
  %21 = add i32 %.neg.i, %11
  tail call void @_ZN4ncnn3Mat6createEiiimiPNS_9AllocatorE(ptr noundef nonnull align 8 dereferenceable(72) %5, i32 noundef %20, i32 noundef %21, i32 noundef %10, i64 noundef 8, i32 noundef 8, ptr noundef null)
  tail call void @_ZN4ncnn3Mat6createEiiimPNS_9AllocatorE(ptr noundef nonnull align 8 dereferenceable(72) %6, i32 noundef 16, i32 noundef %21, i32 noundef %10, i64 noundef 4, ptr noundef null)
  tail call void @_ZN4ncnn3Mat6createEiiimiPNS_9AllocatorE(ptr noundef nonnull align 8 dereferenceable(72) %7, i32 noundef %11, i32 noundef 1, i32 noundef %10, i64 noundef 16, i32 noundef 4, ptr noundef null)
  %22 = getelementptr inbounds nuw i8, ptr %12, i64 4
  %23 = load i32, ptr %22, align 4, !tbaa !8
  tail call void @__kmpc_push_num_threads(ptr nonnull @2, i32 %18, i32 %23)
  call void (ptr, i32, ptr, ...) @__kmpc_fork_call(ptr nonnull @2, i32 12, ptr nonnull @_ZN4ncnnL26lstm_transform_weight_int8ERKNS_3MatES2_S2_S2_S2_RS0_S3_S3_iiiiRKNS_6OptionE.omp_outlined, ptr nonnull %16, ptr nonnull align 8 dereferenceable(72) %0, ptr nonnull align 8 dereferenceable(72) %2, ptr nonnull align 8 dereferenceable(72) %4, ptr nonnull align 8 dereferenceable(72) %1, ptr nonnull align 8 dereferenceable(72) %3, ptr nonnull align 8 dereferenceable(72) %5, ptr nonnull align 8 dereferenceable(72) %7, ptr nonnull align 8 dereferenceable(72) %6, ptr nonnull %17, ptr nonnull %14, ptr nonnull %15)
  call void @llvm.lifetime.end.p0(i64 4, ptr nonnull %14)
  call void @llvm.lifetime.end.p0(i64 4, ptr nonnull %15)
  call void @llvm.lifetime.end.p0(i64 4, ptr nonnull %16)
  call void @llvm.lifetime.end.p0(i64 4, ptr nonnull %17)
  ret void
}